target datalayout = "e-m:e-p270:32:32-p271:32:32-p272:64:64-i64:64-i128:128-f80:128-n8:16:32:64-S128"
target triple = "x86_64-pc-linux-gnu"

%struct.quic_tserver_args_st = type { ptr, ptr, ptr, ptr, ptr, ptr, ptr, ptr, i64 }
%struct.quic_tserver_st = type { %struct.quic_tserver_args_st, ptr, ptr, ptr, ptr, ptr, ptr, ptr, i8 }
%struct.OSSL_TIME = type { i64 }
%struct.quic_stream_st = type { %struct.quic_stream_list_node_st, %struct.quic_stream_list_node_st, %struct.quic_stream_list_node_st, ptr, i64, i64, i64, i64, i64, i64, i64, ptr, ptr, %struct.quic_txfc_st, %struct.quic_rxfc_st, i64 }
%struct.quic_stream_list_node_st = type { ptr, ptr }
%struct.quic_txfc_st = type { ptr, i64, i64, i8 }
%struct.quic_rxfc_st = type { i64, i64, i64, i64, i64, i64, i64, %struct.OSSL_TIME, ptr, ptr, ptr, i8, i8, i8, i8 }

; Function Attrs: inlinehint nounwind uwtable
define internal i64 @ossl_ticks2time(i64 noundef %0) #5 {
  %2 = alloca %struct.OSSL_TIME, align 8
  %3 = alloca i64, align 8
  store i64 %0, ptr %3, align 8, !tbaa !26
  %4 = load i64, ptr %3, align 8, !tbaa !26
  %5 = getelementptr inbounds nuw %struct.OSSL_TIME, ptr %2, i32 0, i32 0
  store i64 %4, ptr %5, align 8, !tbaa !101
  %6 = getelementptr inbounds nuw %struct.OSSL_TIME, ptr %2, i32 0, i32 0
  %7 = load i64, ptr %6, align 8
  ret i64 %7
}

; Function Attrs: inlinehint nounwind uwtable
define internal i64 @ossl_time_zero() #5 {
  %1 = alloca %struct.OSSL_TIME, align 8
  %2 = call i64 @ossl_ticks2time(i64 noundef 0)
  %3 = getelementptr inbounds nuw %struct.OSSL_TIME, ptr %1, i32 0, i32 0
  store i64 %2, ptr %3, align 8
  %4 = getelementptr inbounds nuw %struct.OSSL_TIME, ptr %1, i32 0, i32 0
  %5 = load i64, ptr %4, align 8
  ret i64 %5
}

; Function Attrs: nounwind uwtable
define i64 @ossl_quic_tserver_pop_incoming_stream(ptr noundef %0) #0 {
  %2 = alloca i64, align 8
  %3 = alloca ptr, align 8
  %4 = alloca ptr, align 8
  %5 = alloca ptr, align 8
  %6 = alloca i32, align 4
  %7 = alloca %struct.OSSL_TIME, align 8
  store ptr %0, ptr %3, align 8, !tbaa !10
  call void @llvm.lifetime.start.p0(i64 8, ptr %4) #6
  %8 = load ptr, ptr %3, align 8, !tbaa !10
  %9 = getelementptr inbounds nuw %struct.quic_tserver_st, ptr %8, i32 0, i32 4
  %10 = load ptr, ptr %9, align 8, !tbaa !52
  %11 = call ptr @ossl_quic_channel_get_qsm(ptr noundef %10)
  store ptr %11, ptr %4, align 8, !tbaa !99
  call void @llvm.lifetime.start.p0(i64 8, ptr %5) #6
  %12 = load ptr, ptr %4, align 8, !tbaa !99
  %13 = call ptr @ossl_quic_stream_map_peek_accept_queue(ptr noundef %12)
  store ptr %13, ptr %5, align 8, !tbaa !80
  %14 = load ptr, ptr %5, align 8, !tbaa !80
  %15 = icmp eq ptr %14, null
  br i1 %15, label %16, label %17

16:                                               ; preds = %1
  store i64 -1, ptr %2, align 8
  store i32 1, ptr %6, align 4
  br label %27

17:                                               ; preds = %1
  %18 = load ptr, ptr %4, align 8, !tbaa !99
  %19 = load ptr, ptr %5, align 8, !tbaa !80
  %20 = call i64 @ossl_time_zero()
  %21 = getelementptr inbounds nuw %struct.OSSL_TIME, ptr %7, i32 0, i32 0
  store i64 %20, ptr %21, align 8
  %22 = getelementptr inbounds nuw %struct.OSSL_TIME, ptr %7, i32 0, i32 0
  %23 = load i64, ptr %22, align 8
  call void @ossl_quic_stream_map_remove_from_accept_queue(ptr noundef %18, ptr noundef %19, i64 %23)
  %24 = load ptr, ptr %5, align 8, !tbaa !80
  %25 = getelementptr inbounds nuw %struct.quic_stream_st, ptr %24, i32 0, i32 4
  %26 = load i64, ptr %25, align 8, !tbaa !94
  store i64 %26, ptr %2, align 8
  store i32 1, ptr %6, align 4
  br label %27

27:                                               ; preds = %17, %16
  call void @llvm.lifetime.end.p0(i64 8, ptr %5) #6
  call void @llvm.lifetime.end.p0(i64 8, ptr %4) #6
  %28 = load i64, ptr %2, align 8
  ret i64 %28
}