; Function Attrs: nounwind uwtable
define i64 @ossl_quic_tserver_pop_incoming_stream(ptr noundef readonly captures(none) %0) local_unnamed_addr #0 {
  %2 = getelementptr inbounds nuw i8, ptr %0, i64 96
  %3 = load ptr, ptr %2, align 8, !tbaa !46
  %4 = tail call ptr @ossl_quic_channel_get_qsm(ptr noundef %3) #6
  %5 = tail call ptr @ossl_quic_stream_map_peek_accept_queue(ptr noundef %4) #6
  %6 = icmp eq ptr %5, null
  br i1 %6, label %10, label %7

7:                                                ; preds = %1
  tail call void @ossl_quic_stream_map_remove_from_accept_queue(ptr noundef %4, ptr noundef nonnull %5, i64 0) #6
  %8 = getelementptr inbounds nuw i8, ptr %5, i64 56
  %9 = load i64, ptr %8, align 8, !tbaa !82
  br label %10

10:                                               ; preds = %1, %7
  %.0 = phi i64 [ %9, %7 ], [ -1, %1 ]
  ret i64 %.0
}